target datalayout = "e-m:e-p270:32:32-p271:32:32-p272:64:64-i64:64-i128:128-f80:128-n8:16:32:64-S128"
target triple = "x86_64-pc-linux-gnu"

; Function Attrs: nounwind uwtable
define void @ztranspose(i32 noundef %0, i32 noundef %1, ptr noundef %2, ptr noundef %3, i32 noundef %4, ptr noundef %5, i32 noundef %6, i32 noundef %7) #0 {
  %9 = alloca i32, align 4
  %10 = alloca i32, align 4
  %11 = alloca ptr, align 8
  %12 = alloca ptr, align 8
  %13 = alloca i32, align 4
  %14 = alloca ptr, align 8
  %15 = alloca i32, align 4
  %16 = alloca i32, align 4
  %17 = alloca i32, align 4
  %18 = alloca i32, align 4
  store i32 %0, ptr %9, align 4, !tbaa !8
  store i32 %1, ptr %10, align 4, !tbaa !8
  store ptr %2, ptr %11, align 8, !tbaa !14
  store ptr %3, ptr %12, align 8, !tbaa !14
  store i32 %4, ptr %13, align 4, !tbaa !8
  store ptr %5, ptr %14, align 8, !tbaa !14
  store i32 %6, ptr %15, align 4, !tbaa !8
  store i32 %7, ptr %16, align 4, !tbaa !8
  call void @llvm.lifetime.start.p0(i64 4, ptr %17) #5
  call void @llvm.lifetime.start.p0(i64 4, ptr %18) #5
  %19 = load i32, ptr %15, align 4, !tbaa !8
  %20 = mul nsw i32 %19, 2
  store i32 %20, ptr %15, align 4, !tbaa !8
  %21 = load i32, ptr %13, align 4, !tbaa !8
  %22 = mul nsw i32 %21, 2
  store i32 %22, ptr %13, align 4, !tbaa !8
  store i32 0, ptr %17, align 4, !tbaa !8
  br label %23

23:                                               ; preds = %123, %8
  %24 = load i32, ptr %17, align 4, !tbaa !8
  %25 = load i32, ptr %10, align 4, !tbaa !8
  %26 = mul nsw i32 %25, 2
  %27 = icmp ne i32 %24, %26
  br i1 %27, label %28, label %126

28:                                               ; preds = %23
  store i32 0, ptr %18, align 4, !tbaa !8
  br label %29

29:                                               ; preds = %119, %28
  %30 = load i32, ptr %18, align 4, !tbaa !8
  %31 = load i32, ptr %9, align 4, !tbaa !8
  %32 = mul nsw i32 %31, 2
  %33 = icmp ne i32 %30, %32
  br i1 %33, label %34, label %122

34:                                               ; preds = %29
  %35 = load ptr, ptr %11, align 8, !tbaa !14
  %36 = getelementptr inbounds double, ptr %35, i64 0
  %37 = load double, ptr %36, align 8, !tbaa !16
  %38 = load ptr, ptr %12, align 8, !tbaa !14
  %39 = load i32, ptr %18, align 4, !tbaa !8
  %40 = sdiv i32 %39, 2
  %41 = load i32, ptr %13, align 4, !tbaa !8
  %42 = mul nsw i32 %40, %41
  %43 = load i32, ptr %17, align 4, !tbaa !8
  %44 = add nsw i32 %42, %43
  %45 = sext i32 %44 to i64
  %46 = getelementptr inbounds double, ptr %38, i64 %45
  %47 = load double, ptr %46, align 8, !tbaa !16
  %48 = load i32, ptr %16, align 4, !tbaa !8
  %49 = sitofp i32 %48 to double
  %50 = load ptr, ptr %11, align 8, !tbaa !14
  %51 = getelementptr inbounds double, ptr %50, i64 1
  %52 = load double, ptr %51, align 8, !tbaa !16
  %53 = fmul double %49, %52
  %54 = load ptr, ptr %12, align 8, !tbaa !14
  %55 = load i32, ptr %18, align 4, !tbaa !8
  %56 = sdiv i32 %55, 2
  %57 = load i32, ptr %13, align 4, !tbaa !8
  %58 = mul nsw i32 %56, %57
  %59 = load i32, ptr %17, align 4, !tbaa !8
  %60 = add nsw i32 %58, %59
  %61 = add nsw i32 %60, 1
  %62 = sext i32 %61 to i64
  %63 = getelementptr inbounds double, ptr %54, i64 %62
  %64 = load double, ptr %63, align 8, !tbaa !16
  %65 = fmul double %53, %64
  %66 = call double @llvm.fmuladd.f64(double %37, double %47, double %65)
  %67 = load ptr, ptr %14, align 8, !tbaa !14
  %68 = load i32, ptr %17, align 4, !tbaa !8
  %69 = sdiv i32 %68, 2
  %70 = load i32, ptr %15, align 4, !tbaa !8
  %71 = mul nsw i32 %69, %70
  %72 = load i32, ptr %18, align 4, !tbaa !8
  %73 = add nsw i32 %71, %72
  %74 = sext i32 %73 to i64
  %75 = getelementptr inbounds double, ptr %67, i64 %74
  store double %66, ptr %75, align 8, !tbaa !16
  %76 = load i32, ptr %16, align 4, !tbaa !8
  %77 = sitofp i32 %76 to double
  %78 = fmul double -1.000000e+00, %77
  %79 = load ptr, ptr %11, align 8, !tbaa !14
  %80 = getelementptr inbounds double, ptr %79, i64 0
  %81 = load double, ptr %80, align 8, !tbaa !16
  %82 = fmul double %78, %81
  %83 = load ptr, ptr %12, align 8, !tbaa !14
  %84 = load i32, ptr %18, align 4, !tbaa !8
  %85 = sdiv i32 %84, 2
  %86 = load i32, ptr %13, align 4, !tbaa !8
  %87 = mul nsw i32 %85, %86
  %88 = load i32, ptr %17, align 4, !tbaa !8
  %89 = add nsw i32 %87, %88
  %90 = add nsw i32 %89, 1
  %91 = sext i32 %90 to i64
  %92 = getelementptr inbounds double, ptr %83, i64 %91
  %93 = load double, ptr %92, align 8, !tbaa !16
  %94 = load ptr, ptr %11, align 8, !tbaa !14
  %95 = getelementptr inbounds double, ptr %94, i64 1
  %96 = load double, ptr %95, align 8, !tbaa !16
  %97 = load ptr, ptr %12, align 8, !tbaa !14
  %98 = load i32, ptr %18, align 4, !tbaa !8
  %99 = sdiv i32 %98, 2
  %100 = load i32, ptr %13, align 4, !tbaa !8
  %101 = mul nsw i32 %99, %100
  %102 = load i32, ptr %17, align 4, !tbaa !8
  %103 = add nsw i32 %101, %102
  %104 = sext i32 %103 to i64
  %105 = getelementptr inbounds double, ptr %97, i64 %104
  %106 = load double, ptr %105, align 8, !tbaa !16
  %107 = fmul double %96, %106
  %108 = call double @llvm.fmuladd.f64(double %82, double %93, double %107)
  %109 = load ptr, ptr %14, align 8, !tbaa !14
  %110 = load i32, ptr %17, align 4, !tbaa !8
  %111 = sdiv i32 %110, 2
  %112 = load i32, ptr %15, align 4, !tbaa !8
  %113 = mul nsw i32 %111, %112
  %114 = load i32, ptr %18, align 4, !tbaa !8
  %115 = add nsw i32 %113, %114
  %116 = add nsw i32 %115, 1
  %117 = sext i32 %116 to i64
  %118 = getelementptr inbounds double, ptr %109, i64 %117
  store double %108, ptr %118, align 8, !tbaa !16
  br label %119

119:                                              ; preds = %34
  %120 = load i32, ptr %18, align 4, !tbaa !8
  %121 = add nsw i32 %120, 2
  store i32 %121, ptr %18, align 4, !tbaa !8
  br label %29, !llvm.loop !31

122:                                              ; preds = %29
  br label %123

123:                                              ; preds = %122
  %124 = load i32, ptr %17, align 4, !tbaa !8
  %125 = add nsw i32 %124, 2
  store i32 %125, ptr %17, align 4, !tbaa !8
  br label %23, !llvm.loop !32

126:                                              ; preds = %23
  call void @llvm.lifetime.end.p0(i64 4, ptr %18) #5
  call void @llvm.lifetime.end.p0(i64 4, ptr %17) #5
  ret void
}