; Function Attrs: nofree norecurse nosync nounwind memory(argmem: readwrite) uwtable
define void @ztranspose(i32 noundef %0, i32 noundef %1, ptr noundef readonly captures(none) %2, ptr noundef readonly captures(none) %3, i32 noundef %4, ptr noundef writeonly captures(none) %5, i32 noundef %6, i32 noundef %7) local_unnamed_addr #4 {
  %9 = shl nsw i32 %6, 1
  %10 = shl nsw i32 %4, 1
  %11 = shl nsw i32 %1, 1
  %.not41 = icmp eq i32 %1, 0
  br i1 %.not41, label %._crit_edge43, label %.preheader.lr.ph

.preheader.lr.ph:                                 ; preds = %8
  %.not3839 = icmp eq i32 %0, 0
  %12 = sitofp i32 %7 to double
  %13 = getelementptr inbounds nuw i8, ptr %2, i64 8
  %14 = fneg double %12
  br i1 %.not3839, label %._crit_edge43, label %.preheader.preheader

.preheader.preheader:                             ; preds = %.preheader.lr.ph
  %15 = shl nsw i32 %0, 1
  %16 = sext i32 %10 to i64
  %17 = zext i32 %15 to i64
  %18 = sext i32 %9 to i64
  %19 = zext i32 %11 to i64
  br label %.preheader

.preheader:                                       ; preds = %.preheader.preheader, %._crit_edge
  %indvars.iv46 = phi i64 [ 0, %.preheader.preheader ], [ %indvars.iv.next47, %._crit_edge ]
  %20 = lshr exact i64 %indvars.iv46, 1
  %21 = mul nsw i64 %20, %18
  br label %22

22:                                               ; preds = %.preheader, %22
  %indvars.iv = phi i64 [ 0, %.preheader ], [ %indvars.iv.next, %22 ]
  %23 = load double, ptr %2, align 8, !tbaa !9
  %24 = lshr exact i64 %indvars.iv, 1
  %25 = mul nsw i64 %24, %16
  %26 = add nsw i64 %25, %indvars.iv46
  %27 = getelementptr inbounds double, ptr %3, i64 %26
  %28 = load double, ptr %27, align 8, !tbaa !9
  %29 = load double, ptr %13, align 8, !tbaa !9
  %30 = fmul double %29, %12
  %31 = or disjoint i64 %26, 1
  %32 = getelementptr inbounds double, ptr %3, i64 %31
  %33 = load double, ptr %32, align 8, !tbaa !9
  %34 = fmul double %30, %33
  %35 = tail call double @llvm.fmuladd.f64(double %23, double %28, double %34)
  %36 = add nsw i64 %indvars.iv, %21
  %37 = getelementptr inbounds double, ptr %5, i64 %36
  store double %35, ptr %37, align 8, !tbaa !9
  %38 = load double, ptr %2, align 8, !tbaa !9
  %39 = fmul double %38, %14
  %40 = load double, ptr %32, align 8, !tbaa !9
  %41 = load double, ptr %13, align 8, !tbaa !9
  %42 = load double, ptr %27, align 8, !tbaa !9
  %43 = fmul double %41, %42
  %44 = tail call double @llvm.fmuladd.f64(double %39, double %40, double %43)
  %45 = or disjoint i64 %36, 1
  %46 = getelementptr inbounds double, ptr %5, i64 %45
  store double %44, ptr %46, align 8, !tbaa !9
  %indvars.iv.next = add nuw nsw i64 %indvars.iv, 2
  %.not38 = icmp eq i64 %indvars.iv.next, %17
  br i1 %.not38, label %._crit_edge, label %22, !llvm.loop !26

._crit_edge:                                      ; preds = %22
  %indvars.iv.next47 = add nuw nsw i64 %indvars.iv46, 2
  %.not = icmp eq i64 %indvars.iv.next47, %19
  br i1 %.not, label %._crit_edge43, label %.preheader, !llvm.loop !27

._crit_edge43:                                    ; preds = %._crit_edge, %.preheader.lr.ph, %8
  ret void
}